target datalayout = "e-m:e-p270:32:32-p271:32:32-p272:64:64-i64:64-i128:128-f80:128-n8:16:32:64-S128"
target triple = "x86_64-pc-linux-gnu"

%struct.rax = type { ptr, i64, i64, [0 x ptr] }

@lazyfree_objects = internal global i64 0, align 8
@lazyfreed_objects = internal global i64 0, align 8

; Function Attrs: nounwind uwtable
define dso_local void @lazyFreeErrors(ptr noundef %0) #0 {
  %2 = alloca ptr, align 8
  %3 = alloca ptr, align 8
  %4 = alloca i64, align 8
  %5 = alloca i64, align 8
  %6 = alloca i64, align 8
  %7 = alloca i64, align 8
  %8 = alloca i64, align 8
  store ptr %0, ptr %2, align 8, !tbaa !5
  call void @llvm.lifetime.start.p0(i64 8, ptr %3) #7
  %9 = load ptr, ptr %2, align 8, !tbaa !5
  %10 = getelementptr inbounds ptr, ptr %9, i64 0
  %11 = load ptr, ptr %10, align 8, !tbaa !5
  store ptr %11, ptr %3, align 8, !tbaa !15
  call void @llvm.lifetime.start.p0(i64 8, ptr %4) #7
  %12 = load ptr, ptr %3, align 8, !tbaa !15
  %13 = getelementptr inbounds nuw %struct.rax, ptr %12, i32 0, i32 1
  %14 = load i64, ptr %13, align 8, !tbaa !11
  store i64 %14, ptr %4, align 8, !tbaa !11
  %15 = load ptr, ptr %3, align 8, !tbaa !15
  call void @raxFreeWithCallback(ptr noundef %15, ptr noundef @zfree)
  %16 = load i64, ptr %4, align 8, !tbaa !11
  store i64 %16, ptr %5, align 8, !tbaa !11
  %17 = load i64, ptr %5, align 8
  %18 = atomicrmw sub ptr @lazyfree_objects, i64 %17 monotonic, align 8
  store i64 %18, ptr %6, align 8
  %19 = load i64, ptr %4, align 8, !tbaa !11
  store i64 %19, ptr %7, align 8, !tbaa !11
  %20 = load i64, ptr %7, align 8
  %21 = atomicrmw add ptr @lazyfreed_objects, i64 %20 monotonic, align 8
  store i64 %21, ptr %8, align 8
  call void @llvm.lifetime.end.p0(i64 8, ptr %4) #7
  call void @llvm.lifetime.end.p0(i64 8, ptr %3) #7
  ret void
}